target datalayout = "e-m:e-p270:32:32-p271:32:32-p272:64:64-i64:64-i128:128-f80:128-n8:16:32:64-S128"
target triple = "x86_64-pc-linux-gnu"

%struct.mbedtls_gcm_context = type { %struct.mbedtls_cipher_context_t, [16 x i64], [16 x i64], i64, i64, [16 x i8], [16 x i8], [16 x i8], i32 }
%struct.mbedtls_cipher_context_t = type { ptr, i32, i32, [16 x i8], i64, [16 x i8], i64, ptr }

; Function Attrs: mustprogress uwtable
define hidden i32 @mbedtls_gcm_starts(ptr noundef %0, i32 noundef %1, ptr noundef %2, i64 noundef %3) #2 {
  %5 = alloca i32, align 4
  %6 = alloca ptr, align 8
  %7 = alloca i32, align 4
  %8 = alloca ptr, align 8
  %9 = alloca i64, align 8
  %10 = alloca i32, align 4
  %11 = alloca [16 x i8], align 16
  %12 = alloca i64, align 8
  %13 = alloca ptr, align 8
  %14 = alloca i64, align 8
  %15 = alloca i64, align 8
  %16 = alloca i64, align 8
  %17 = alloca i32, align 4
  store ptr %0, ptr %6, align 8, !tbaa !3
  store i32 %1, ptr %7, align 4, !tbaa !12
  store ptr %2, ptr %8, align 8, !tbaa !10
  store i64 %3, ptr %9, align 8, !tbaa !21
  call void @llvm.lifetime.start.p0(i64 4, ptr %10) #6
  store i32 -110, ptr %10, align 4, !tbaa !12
  call void @llvm.lifetime.start.p0(i64 16, ptr %11) #6
  call void @llvm.lifetime.start.p0(i64 8, ptr %12) #6
  call void @llvm.lifetime.start.p0(i64 8, ptr %13) #6
  call void @llvm.lifetime.start.p0(i64 8, ptr %14) #6
  call void @llvm.lifetime.start.p0(i64 8, ptr %15) #6
  store i64 0, ptr %15, align 8, !tbaa !21
  call void @llvm.lifetime.start.p0(i64 8, ptr %16) #6
  br label %18

18:                                               ; preds = %4
  br label %19

19:                                               ; preds = %18
  br label %20

20:                                               ; preds = %19
  br label %21

21:                                               ; preds = %20
  br label %22

22:                                               ; preds = %21
  br label %23

23:                                               ; preds = %22
  %24 = load i64, ptr %9, align 8, !tbaa !21
  %25 = icmp eq i64 %24, 0
  br i1 %25, label %30, label %26

26:                                               ; preds = %23
  %27 = load i64, ptr %9, align 8, !tbaa !21
  %28 = lshr i64 %27, 61
  %29 = icmp ne i64 %28, 0
  br i1 %29, label %30, label %31

30:                                               ; preds = %26, %23
  store i32 -20, ptr %5, align 4
  store i32 1, ptr %17, align 4
  br label %188

31:                                               ; preds = %26
  %32 = load ptr, ptr %6, align 8, !tbaa !3
  %33 = getelementptr inbounds nuw %struct.mbedtls_gcm_context, ptr %32, i32 0, i32 6
  %34 = getelementptr inbounds [16 x i8], ptr %33, i64 0, i64 0
  call void @llvm.memset.p0.i64(ptr align 8 %34, i8 0, i64 16, i1 false)
  %35 = load ptr, ptr %6, align 8, !tbaa !3
  %36 = getelementptr inbounds nuw %struct.mbedtls_gcm_context, ptr %35, i32 0, i32 7
  %37 = getelementptr inbounds [16 x i8], ptr %36, i64 0, i64 0
  call void @llvm.memset.p0.i64(ptr align 8 %37, i8 0, i64 16, i1 false)
  %38 = load i32, ptr %7, align 4, !tbaa !12
  %39 = load ptr, ptr %6, align 8, !tbaa !3
  %40 = getelementptr inbounds nuw %struct.mbedtls_gcm_context, ptr %39, i32 0, i32 8
  store i32 %38, ptr %40, align 8, !tbaa !30
  %41 = load ptr, ptr %6, align 8, !tbaa !3
  %42 = getelementptr inbounds nuw %struct.mbedtls_gcm_context, ptr %41, i32 0, i32 3
  store i64 0, ptr %42, align 8, !tbaa !34
  %43 = load ptr, ptr %6, align 8, !tbaa !3
  %44 = getelementptr inbounds nuw %struct.mbedtls_gcm_context, ptr %43, i32 0, i32 4
  store i64 0, ptr %44, align 8, !tbaa !35
  %45 = load i64, ptr %9, align 8, !tbaa !21
  %46 = icmp eq i64 %45, 12
  br i1 %46, label %47, label %56

47:                                               ; preds = %31
  %48 = load ptr, ptr %6, align 8, !tbaa !3
  %49 = getelementptr inbounds nuw %struct.mbedtls_gcm_context, ptr %48, i32 0, i32 6
  %50 = getelementptr inbounds [16 x i8], ptr %49, i64 0, i64 0
  %51 = load ptr, ptr %8, align 8, !tbaa !10
  %52 = load i64, ptr %9, align 8, !tbaa !21
  call void @llvm.memcpy.p0.p0.i64(ptr align 8 %50, ptr align 1 %51, i64 %52, i1 false)
  %53 = load ptr, ptr %6, align 8, !tbaa !3
  %54 = getelementptr inbounds nuw %struct.mbedtls_gcm_context, ptr %53, i32 0, i32 6
  %55 = getelementptr inbounds [16 x i8], ptr %54, i64 0, i64 15
  store i8 1, ptr %55, align 1, !tbaa !23
  br label %174

56:                                               ; preds = %31
  %57 = getelementptr inbounds [16 x i8], ptr %11, i64 0, i64 0
  call void @llvm.memset.p0.i64(ptr align 16 %57, i8 0, i64 16, i1 false)
  %58 = load i64, ptr %9, align 8, !tbaa !21
  %59 = mul i64 %58, 8
  store i64 %59, ptr %16, align 8, !tbaa !21
  %60 = load i64, ptr %16, align 8, !tbaa !21
  %61 = lshr i64 %60, 56
  %62 = and i64 %61, 255
  %63 = trunc i64 %62 to i8
  %64 = getelementptr inbounds [16 x i8], ptr %11, i64 0, i64 8
  store i8 %63, ptr %64, align 8, !tbaa !23
  %65 = load i64, ptr %16, align 8, !tbaa !21
  %66 = lshr i64 %65, 48
  %67 = and i64 %66, 255
  %68 = trunc i64 %67 to i8
  %69 = getelementptr inbounds [16 x i8], ptr %11, i64 0, i64 9
  store i8 %68, ptr %69, align 1, !tbaa !23
  %70 = load i64, ptr %16, align 8, !tbaa !21
  %71 = lshr i64 %70, 40
  %72 = and i64 %71, 255
  %73 = trunc i64 %72 to i8
  %74 = getelementptr inbounds [16 x i8], ptr %11, i64 0, i64 10
  store i8 %73, ptr %74, align 2, !tbaa !23
  %75 = load i64, ptr %16, align 8, !tbaa !21
  %76 = lshr i64 %75, 32
  %77 = and i64 %76, 255
  %78 = trunc i64 %77 to i8
  %79 = getelementptr inbounds [16 x i8], ptr %11, i64 0, i64 11
  store i8 %78, ptr %79, align 1, !tbaa !23
  %80 = load i64, ptr %16, align 8, !tbaa !21
  %81 = lshr i64 %80, 24
  %82 = and i64 %81, 255
  %83 = trunc i64 %82 to i8
  %84 = getelementptr inbounds [16 x i8], ptr %11, i64 0, i64 12
  store i8 %83, ptr %84, align 4, !tbaa !23
  %85 = load i64, ptr %16, align 8, !tbaa !21
  %86 = lshr i64 %85, 16
  %87 = and i64 %86, 255
  %88 = trunc i64 %87 to i8
  %89 = getelementptr inbounds [16 x i8], ptr %11, i64 0, i64 13
  store i8 %88, ptr %89, align 1, !tbaa !23
  %90 = load i64, ptr %16, align 8, !tbaa !21
  %91 = lshr i64 %90, 8
  %92 = and i64 %91, 255
  %93 = trunc i64 %92 to i8
  %94 = getelementptr inbounds [16 x i8], ptr %11, i64 0, i64 14
  store i8 %93, ptr %94, align 2, !tbaa !23
  %95 = load i64, ptr %16, align 8, !tbaa !21
  %96 = and i64 %95, 255
  %97 = trunc i64 %96 to i8
  %98 = getelementptr inbounds [16 x i8], ptr %11, i64 0, i64 15
  store i8 %97, ptr %98, align 1, !tbaa !23
  %99 = load ptr, ptr %8, align 8, !tbaa !10
  store ptr %99, ptr %13, align 8, !tbaa !10
  br label %100

100:                                              ; preds = %132, %56
  %101 = load i64, ptr %9, align 8, !tbaa !21
  %102 = icmp ugt i64 %101, 0
  br i1 %102, label %103, label %146

103:                                              ; preds = %100
  %104 = load i64, ptr %9, align 8, !tbaa !21
  %105 = icmp ult i64 %104, 16
  br i1 %105, label %106, label %108

106:                                              ; preds = %103
  %107 = load i64, ptr %9, align 8, !tbaa !21
  br label %109

108:                                              ; preds = %103
  br label %109

109:                                              ; preds = %108, %106
  %110 = phi i64 [ %107, %106 ], [ 16, %108 ]
  store i64 %110, ptr %14, align 8, !tbaa !21
  store i64 0, ptr %12, align 8, !tbaa !21
  br label %111

111:                                              ; preds = %129, %109
  %112 = load i64, ptr %12, align 8, !tbaa !21
  %113 = load i64, ptr %14, align 8, !tbaa !21
  %114 = icmp ult i64 %112, %113
  br i1 %114, label %115, label %132

115:                                              ; preds = %111
  %116 = load ptr, ptr %13, align 8, !tbaa !10
  %117 = load i64, ptr %12, align 8, !tbaa !21
  %118 = getelementptr inbounds nuw i8, ptr %116, i64 %117
  %119 = load i8, ptr %118, align 1, !tbaa !23
  %120 = zext i8 %119 to i32
  %121 = load ptr, ptr %6, align 8, !tbaa !3
  %122 = getelementptr inbounds nuw %struct.mbedtls_gcm_context, ptr %121, i32 0, i32 6
  %123 = load i64, ptr %12, align 8, !tbaa !21
  %124 = getelementptr inbounds nuw [16 x i8], ptr %122, i64 0, i64 %123
  %125 = load i8, ptr %124, align 1, !tbaa !23
  %126 = zext i8 %125 to i32
  %127 = xor i32 %126, %120
  %128 = trunc i32 %127 to i8
  store i8 %128, ptr %124, align 1, !tbaa !23
  br label %129

129:                                              ; preds = %115
  %130 = load i64, ptr %12, align 8, !tbaa !21
  %131 = add i64 %130, 1
  store i64 %131, ptr %12, align 8, !tbaa !21
  br label %111, !llvm.loop !36

132:                                              ; preds = %111
  %133 = load ptr, ptr %6, align 8, !tbaa !3
  %134 = load ptr, ptr %6, align 8, !tbaa !3
  %135 = getelementptr inbounds nuw %struct.mbedtls_gcm_context, ptr %134, i32 0, i32 6
  %136 = getelementptr inbounds [16 x i8], ptr %135, i64 0, i64 0
  %137 = load ptr, ptr %6, align 8, !tbaa !3
  %138 = getelementptr inbounds nuw %struct.mbedtls_gcm_context, ptr %137, i32 0, i32 6
  %139 = getelementptr inbounds [16 x i8], ptr %138, i64 0, i64 0
  call void @_ZL8gcm_multP19mbedtls_gcm_contextPKhPh(ptr noundef %133, ptr noundef %136, ptr noundef %139)
  %140 = load i64, ptr %14, align 8, !tbaa !21
  %141 = load i64, ptr %9, align 8, !tbaa !21
  %142 = sub i64 %141, %140
  store i64 %142, ptr %9, align 8, !tbaa !21
  %143 = load i64, ptr %14, align 8, !tbaa !21
  %144 = load ptr, ptr %13, align 8, !tbaa !10
  %145 = getelementptr inbounds nuw i8, ptr %144, i64 %143
  store ptr %145, ptr %13, align 8, !tbaa !10
  br label %100, !llvm.loop !37

146:                                              ; preds = %100
  store i64 0, ptr %12, align 8, !tbaa !21
  br label %147

147:                                              ; preds = %163, %146
  %148 = load i64, ptr %12, align 8, !tbaa !21
  %149 = icmp ult i64 %148, 16
  br i1 %149, label %150, label %166

150:                                              ; preds = %147
  %151 = load i64, ptr %12, align 8, !tbaa !21
  %152 = getelementptr inbounds nuw [16 x i8], ptr %11, i64 0, i64 %151
  %153 = load i8, ptr %152, align 1, !tbaa !23
  %154 = zext i8 %153 to i32
  %155 = load ptr, ptr %6, align 8, !tbaa !3
  %156 = getelementptr inbounds nuw %struct.mbedtls_gcm_context, ptr %155, i32 0, i32 6
  %157 = load i64, ptr %12, align 8, !tbaa !21
  %158 = getelementptr inbounds nuw [16 x i8], ptr %156, i64 0, i64 %157
  %159 = load i8, ptr %158, align 1, !tbaa !23
  %160 = zext i8 %159 to i32
  %161 = xor i32 %160, %154
  %162 = trunc i32 %161 to i8
  store i8 %162, ptr %158, align 1, !tbaa !23
  br label %163

163:                                              ; preds = %150
  %164 = load i64, ptr %12, align 8, !tbaa !21
  %165 = add i64 %164, 1
  store i64 %165, ptr %12, align 8, !tbaa !21
  br label %147, !llvm.loop !38

166:                                              ; preds = %147
  %167 = load ptr, ptr %6, align 8, !tbaa !3
  %168 = load ptr, ptr %6, align 8, !tbaa !3
  %169 = getelementptr inbounds nuw %struct.mbedtls_gcm_context, ptr %168, i32 0, i32 6
  %170 = getelementptr inbounds [16 x i8], ptr %169, i64 0, i64 0
  %171 = load ptr, ptr %6, align 8, !tbaa !3
  %172 = getelementptr inbounds nuw %struct.mbedtls_gcm_context, ptr %171, i32 0, i32 6
  %173 = getelementptr inbounds [16 x i8], ptr %172, i64 0, i64 0
  call void @_ZL8gcm_multP19mbedtls_gcm_contextPKhPh(ptr noundef %167, ptr noundef %170, ptr noundef %173)
  br label %174

174:                                              ; preds = %166, %47
  %175 = load ptr, ptr %6, align 8, !tbaa !3
  %176 = getelementptr inbounds nuw %struct.mbedtls_gcm_context, ptr %175, i32 0, i32 0
  %177 = load ptr, ptr %6, align 8, !tbaa !3
  %178 = getelementptr inbounds nuw %struct.mbedtls_gcm_context, ptr %177, i32 0, i32 6
  %179 = getelementptr inbounds [16 x i8], ptr %178, i64 0, i64 0
  %180 = load ptr, ptr %6, align 8, !tbaa !3
  %181 = getelementptr inbounds nuw %struct.mbedtls_gcm_context, ptr %180, i32 0, i32 5
  %182 = getelementptr inbounds [16 x i8], ptr %181, i64 0, i64 0
  %183 = call i32 @mbedtls_cipher_update(ptr noundef %176, ptr noundef %179, i64 noundef 16, ptr noundef %182, ptr noundef %15)
  store i32 %183, ptr %10, align 4, !tbaa !12
  %184 = icmp ne i32 %183, 0
  br i1 %184, label %185, label %187

185:                                              ; preds = %174
  %186 = load i32, ptr %10, align 4, !tbaa !12
  store i32 %186, ptr %5, align 4
  store i32 1, ptr %17, align 4
  br label %188

187:                                              ; preds = %174
  store i32 0, ptr %5, align 4
  store i32 1, ptr %17, align 4
  br label %188

188:                                              ; preds = %187, %185, %30
  call void @llvm.lifetime.end.p0(i64 8, ptr %16) #6
  call void @llvm.lifetime.end.p0(i64 8, ptr %15) #6
  call void @llvm.lifetime.end.p0(i64 8, ptr %14) #6
  call void @llvm.lifetime.end.p0(i64 8, ptr %13) #6
  call void @llvm.lifetime.end.p0(i64 8, ptr %12) #6
  call void @llvm.lifetime.end.p0(i64 16, ptr %11) #6
  call void @llvm.lifetime.end.p0(i64 4, ptr %10) #6
  %189 = load i32, ptr %5, align 4
  ret i32 %189
}