; Function Attrs: mustprogress uwtable
define hidden i32 @mbedtls_gcm_starts(ptr noundef %0, i32 noundef %1, ptr noundef readonly captures(none) %2, i64 noundef %3) local_unnamed_addr #2 {
  %5 = alloca [16 x i8], align 16
  %6 = alloca i64, align 8
  call void @llvm.lifetime.start.p0(i64 16, ptr nonnull %5) #8
  call void @llvm.lifetime.start.p0(i64 8, ptr nonnull %6) #8
  store i64 0, ptr %6, align 8, !tbaa !13
  %7 = add i64 %3, -1
  %or.cond = icmp ult i64 %7, 2305843009213693951
  br i1 %or.cond, label %8, label %59

8:                                                ; preds = %4
  %9 = getelementptr inbounds nuw i8, ptr %0, i64 360
  %10 = getelementptr inbounds nuw i8, ptr %0, i64 392
  tail call void @llvm.memset.p0.i64(ptr noundef nonnull align 8 dereferenceable(32) %9, i8 0, i64 32, i1 false)
  store i32 %1, ptr %10, align 8, !tbaa !20
  %11 = getelementptr inbounds nuw i8, ptr %0, i64 328
  %12 = icmp eq i64 %3, 12
  tail call void @llvm.memset.p0.i64(ptr noundef nonnull align 8 dereferenceable(16) %11, i8 0, i64 16, i1 false)
  br i1 %12, label %13, label %.lr.ph.preheader

13:                                               ; preds = %8
  tail call void @llvm.memcpy.p0.p0.i64(ptr noundef nonnull align 8 dereferenceable(12) %9, ptr noundef nonnull align 1 dereferenceable(12) %2, i64 12, i1 false)
  %14 = getelementptr inbounds nuw i8, ptr %0, i64 375
  store i8 1, ptr %14, align 1, !tbaa !15
  br label %56

.lr.ph.preheader:                                 ; preds = %8
  call void @llvm.memset.p0.i64(ptr noundef nonnull align 16 dereferenceable(16) %5, i8 0, i64 16, i1 false)
  %15 = lshr i64 %3, 53
  %16 = trunc nuw i64 %15 to i8
  %17 = getelementptr inbounds nuw i8, ptr %5, i64 8
  store i8 %16, ptr %17, align 8, !tbaa !15
  %18 = lshr i64 %3, 45
  %19 = trunc i64 %18 to i8
  %20 = getelementptr inbounds nuw i8, ptr %5, i64 9
  store i8 %19, ptr %20, align 1, !tbaa !15
  %21 = lshr i64 %3, 37
  %22 = trunc i64 %21 to i8
  %23 = getelementptr inbounds nuw i8, ptr %5, i64 10
  store i8 %22, ptr %23, align 2, !tbaa !15
  %24 = lshr i64 %3, 29
  %25 = trunc i64 %24 to i8
  %26 = getelementptr inbounds nuw i8, ptr %5, i64 11
  store i8 %25, ptr %26, align 1, !tbaa !15
  %27 = lshr i64 %3, 21
  %28 = trunc i64 %27 to i8
  %29 = getelementptr inbounds nuw i8, ptr %5, i64 12
  store i8 %28, ptr %29, align 4, !tbaa !15
  %30 = lshr i64 %3, 13
  %31 = trunc i64 %30 to i8
  %32 = getelementptr inbounds nuw i8, ptr %5, i64 13
  store i8 %31, ptr %32, align 1, !tbaa !15
  %33 = lshr i64 %3, 5
  %34 = trunc i64 %33 to i8
  %35 = getelementptr inbounds nuw i8, ptr %5, i64 14
  store i8 %34, ptr %35, align 2, !tbaa !15
  %.tr = trunc i64 %3 to i8
  %36 = shl i8 %.tr, 3
  %37 = getelementptr inbounds nuw i8, ptr %5, i64 15
  store i8 %36, ptr %37, align 1, !tbaa !15
  br label %.lr.ph

.lr.ph:                                           ; preds = %.lr.ph.preheader, %46
  %.05263 = phi i64 [ %47, %46 ], [ %3, %.lr.ph.preheader ]
  %.05362 = phi ptr [ %48, %46 ], [ %2, %.lr.ph.preheader ]
  %38 = tail call i64 @llvm.umin.i64(i64 %.05263, i64 16)
  br label %39

39:                                               ; preds = %.lr.ph, %39
  %.05460 = phi i64 [ 0, %.lr.ph ], [ %45, %39 ]
  %40 = getelementptr inbounds nuw i8, ptr %.05362, i64 %.05460
  %41 = load i8, ptr %40, align 1, !tbaa !15
  %42 = getelementptr inbounds nuw [16 x i8], ptr %9, i64 0, i64 %.05460
  %43 = load i8, ptr %42, align 1, !tbaa !15
  %44 = xor i8 %43, %41
  store i8 %44, ptr %42, align 1, !tbaa !15
  %45 = add nuw nsw i64 %.05460, 1
  %exitcond.not = icmp eq i64 %45, %38
  br i1 %exitcond.not, label %46, label %39, !llvm.loop !25

46:                                               ; preds = %39
  tail call fastcc void @_ZL8gcm_multP19mbedtls_gcm_contextPKhPh(ptr noundef nonnull %0, ptr noundef nonnull %9, ptr noundef nonnull %9)
  %47 = sub i64 %.05263, %38
  %48 = getelementptr inbounds nuw i8, ptr %.05362, i64 %38
  %.not58 = icmp eq i64 %47, 0
  br i1 %.not58, label %.preheader, label %.lr.ph, !llvm.loop !26

.preheader:                                       ; preds = %46, %.preheader
  %.164 = phi i64 [ %54, %.preheader ], [ 0, %46 ]
  %49 = getelementptr inbounds nuw [16 x i8], ptr %5, i64 0, i64 %.164
  %50 = load i8, ptr %49, align 1, !tbaa !15
  %51 = getelementptr inbounds nuw [16 x i8], ptr %9, i64 0, i64 %.164
  %52 = load i8, ptr %51, align 1, !tbaa !15
  %53 = xor i8 %52, %50
  store i8 %53, ptr %51, align 1, !tbaa !15
  %54 = add nuw nsw i64 %.164, 1
  %exitcond65.not = icmp eq i64 %54, 16
  br i1 %exitcond65.not, label %55, label %.preheader, !llvm.loop !27

55:                                               ; preds = %.preheader
  tail call fastcc void @_ZL8gcm_multP19mbedtls_gcm_contextPKhPh(ptr noundef nonnull %0, ptr noundef nonnull %9, ptr noundef nonnull %9)
  br label %56

56:                                               ; preds = %55, %13
  %57 = getelementptr inbounds nuw i8, ptr %0, i64 344
  %58 = call i32 @mbedtls_cipher_update(ptr noundef nonnull %0, ptr noundef nonnull %9, i64 noundef 16, ptr noundef nonnull %57, ptr noundef nonnull %6)
  br label %59

59:                                               ; preds = %56, %4
  %.0 = phi i32 [ -20, %4 ], [ %58, %56 ]
  call void @llvm.lifetime.end.p0(i64 8, ptr nonnull %6) #8
  call void @llvm.lifetime.end.p0(i64 16, ptr nonnull %5) #8
  ret i32 %.0
}